target datalayout = "e-m:e-p270:32:32-p271:32:32-p272:64:64-i64:64-i128:128-f80:128-n8:16:32:64-S128"
target triple = "x86_64-pc-linux-gnu"

%"class.icu_77::Calendar" = type <{ %"class.icu_77::UObject", [24 x i32], [24 x i8], i8, [7 x i8], double, ptr, i8, i16, i8, i32, i32, i32, i8, i8, i16, [4 x i8], ptr, ptr }>
%"class.icu_77::UObject" = type { ptr }

; Function Attrs: inlinehint mustprogress nounwind uwtable
define linkonce_odr noundef signext i8 @_ZN6icu_775Grego10isLeapYearEi(i32 noundef %0) #4 comdat align 2 {
  %2 = alloca i32, align 4
  store i32 %0, ptr %2, align 4, !tbaa !17
  %3 = load i32, ptr %2, align 4, !tbaa !17
  %4 = and i32 %3, 3
  %5 = icmp eq i32 %4, 0
  br i1 %5, label %6, label %16

6:                                                ; preds = %1
  %7 = load i32, ptr %2, align 4, !tbaa !17
  %8 = srem i32 %7, 100
  %9 = icmp ne i32 %8, 0
  br i1 %9, label %14, label %10

10:                                               ; preds = %6
  %11 = load i32, ptr %2, align 4, !tbaa !17
  %12 = srem i32 %11, 400
  %13 = icmp eq i32 %12, 0
  br label %14

14:                                               ; preds = %10, %6
  %15 = phi i1 [ true, %6 ], [ %13, %10 ]
  br label %16

16:                                               ; preds = %14, %1
  %17 = phi i1 [ false, %1 ], [ %15, %14 ]
  %18 = zext i1 %17 to i8
  ret i8 %18
}

; Function Attrs: inlinehint mustprogress nounwind uwtable
define linkonce_odr void @_ZN6icu_778Calendar11internalSetE19UCalendarDateFieldsi(ptr noundef nonnull align 8 dereferenceable(192) %0, i32 noundef %1, i32 noundef %2) #4 comdat align 2 {
  %4 = alloca ptr, align 8
  %5 = alloca i32, align 4
  %6 = alloca i32, align 4
  store ptr %0, ptr %4, align 8, !tbaa !26
  store i32 %1, ptr %5, align 4, !tbaa !13
  store i32 %2, ptr %6, align 4, !tbaa !17
  %7 = load ptr, ptr %4, align 8
  %8 = load i32, ptr %6, align 4, !tbaa !17
  %9 = getelementptr inbounds nuw %"class.icu_77::Calendar", ptr %7, i32 0, i32 1
  %10 = load i32, ptr %5, align 4, !tbaa !13
  %11 = zext i32 %10 to i64
  %12 = getelementptr inbounds nuw [24 x i32], ptr %9, i64 0, i64 %11
  store i32 %8, ptr %12, align 4, !tbaa !17
  %13 = getelementptr inbounds nuw %"class.icu_77::Calendar", ptr %7, i32 0, i32 2
  %14 = load i32, ptr %5, align 4, !tbaa !13
  %15 = zext i32 %14 to i64
  %16 = getelementptr inbounds nuw [24 x i8], ptr %13, i64 0, i64 %15
  store i8 1, ptr %16, align 1, !tbaa !21
  ret void
}

; Function Attrs: mustprogress uwtable
define internal noundef signext i8 @_ZN6icu_77L15isGregorianLeapEi(i32 noundef %0) #0 {
  %2 = alloca i32, align 4
  store i32 %0, ptr %2, align 4, !tbaa !17
  %3 = load i32, ptr %2, align 4, !tbaa !17
  %4 = call noundef signext i8 @_ZN6icu_775Grego10isLeapYearEi(i32 noundef %3)
  ret i8 %4
}

; Function Attrs: mustprogress uwtable
define internal noundef double @_ZN6icu_77L13gregorianToJDEiii(i32 noundef %0, i32 noundef %1, i32 noundef %2) #0 {
  %4 = alloca i32, align 4
  %5 = alloca i32, align 4
  %6 = alloca i32, align 4
  store i32 %0, ptr %4, align 4, !tbaa !17
  store i32 %1, ptr %5, align 4, !tbaa !17
  store i32 %2, ptr %6, align 4, !tbaa !17
  %7 = load i32, ptr %4, align 4, !tbaa !17
  %8 = load i32, ptr %5, align 4, !tbaa !17
  %9 = load i32, ptr %6, align 4, !tbaa !17
  %10 = call noundef i64 @_ZN6icu_775Grego11fieldsToDayEiii(i32 noundef %7, i32 noundef %8, i32 noundef %9)
  %11 = add nsw i64 %10, 2440588
  %12 = sitofp i64 %11 to double
  %13 = fsub double %12, 5.000000e-01
  ret double %13
}

; Function Attrs: inlinehint mustprogress nounwind uwtable
define internal noundef signext i8 @_ZL9U_FAILURE10UErrorCode(i32 noundef %0) #4 {
  %2 = alloca i32, align 4
  store i32 %0, ptr %2, align 4, !tbaa !19
  %3 = load i32, ptr %2, align 4, !tbaa !19
  %4 = icmp sgt i32 %3, 0
  %5 = zext i1 %4 to i8
  ret i8 %5
}

; Function Attrs: mustprogress uwtable
define void @_ZN6icu_7714IndianCalendar19handleComputeFieldsEiR10UErrorCode(ptr noundef nonnull align 8 dereferenceable(192) %0, i32 noundef %1, ptr noundef nonnull align 4 dereferenceable(4) %2) unnamed_addr #0 align 2 {
  %4 = alloca ptr, align 8
  %5 = alloca i32, align 4
  %6 = alloca ptr, align 8
  %7 = alloca double, align 8
  %8 = alloca i32, align 4
  %9 = alloca i32, align 4
  %10 = alloca i32, align 4
  %11 = alloca i32, align 4
  %12 = alloca i32, align 4
  %13 = alloca i32, align 4
  %14 = alloca i32, align 4
  %15 = alloca i32, align 4
  store ptr %0, ptr %4, align 8, !tbaa !3
  store i32 %1, ptr %5, align 4, !tbaa !17
  store ptr %2, ptr %6, align 8, !tbaa !10
  %16 = load ptr, ptr %4, align 8
  call void @llvm.lifetime.start.p0(i64 8, ptr %7) #9
  call void @llvm.lifetime.start.p0(i64 4, ptr %8) #9
  call void @llvm.lifetime.start.p0(i64 4, ptr %9) #9
  call void @llvm.lifetime.start.p0(i64 4, ptr %10) #9
  call void @llvm.lifetime.start.p0(i64 4, ptr %11) #9
  call void @llvm.lifetime.start.p0(i64 4, ptr %12) #9
  call void @llvm.lifetime.start.p0(i64 4, ptr %13) #9
  call void @llvm.lifetime.start.p0(i64 4, ptr %14) #9
  %17 = load i32, ptr %5, align 4, !tbaa !17
  %18 = sub nsw i32 %17, 2440588
  %19 = load ptr, ptr %6, align 8, !tbaa !10
  %20 = call noundef i32 @_ZN6icu_775Grego9dayToYearEiR10UErrorCode(i32 noundef %18, ptr noundef nonnull align 4 dereferenceable(4) %19)
  store i32 %20, ptr %14, align 4, !tbaa !17
  %21 = load ptr, ptr %6, align 8, !tbaa !10
  %22 = load i32, ptr %21, align 4, !tbaa !19
  %23 = call noundef signext i8 @_ZL9U_FAILURE10UErrorCode(i32 noundef %22)
  %24 = icmp ne i8 %23, 0
  br i1 %24, label %25, label %26

25:                                               ; preds = %3
  store i32 1, ptr %15, align 4
  br label %103

26:                                               ; preds = %3
  %27 = load i32, ptr %14, align 4, !tbaa !17
  %28 = sub nsw i32 %27, 78
  store i32 %28, ptr %9, align 4, !tbaa !17
  %29 = load i32, ptr %14, align 4, !tbaa !17
  %30 = call noundef double @_ZN6icu_77L13gregorianToJDEiii(i32 noundef %29, i32 noundef 0, i32 noundef 1)
  store double %30, ptr %7, align 8, !tbaa !24
  %31 = load i32, ptr %5, align 4, !tbaa !17
  %32 = sitofp i32 %31 to double
  %33 = load double, ptr %7, align 8, !tbaa !24
  %34 = fsub double %32, %33
  %35 = fptosi double %34 to i32
  store i32 %35, ptr %10, align 4, !tbaa !17
  %36 = load i32, ptr %10, align 4, !tbaa !17
  %37 = icmp slt i32 %36, 80
  br i1 %37, label %38, label %52

38:                                               ; preds = %26
  %39 = load i32, ptr %9, align 4, !tbaa !17
  %40 = sub nsw i32 %39, 1
  store i32 %40, ptr %9, align 4, !tbaa !17
  %41 = load i32, ptr %14, align 4, !tbaa !17
  %42 = sub nsw i32 %41, 1
  %43 = call noundef signext i8 @_ZN6icu_77L15isGregorianLeapEi(i32 noundef %42)
  %44 = icmp ne i8 %43, 0
  %45 = select i1 %44, i32 31, i32 30
  store i32 %45, ptr %8, align 4, !tbaa !17
  %46 = load i32, ptr %8, align 4, !tbaa !17
  %47 = add nsw i32 %46, 155
  %48 = add nsw i32 %47, 90
  %49 = add nsw i32 %48, 10
  %50 = load i32, ptr %10, align 4, !tbaa !17
  %51 = add nsw i32 %50, %49
  store i32 %51, ptr %10, align 4, !tbaa !17
  br label %59

52:                                               ; preds = %26
  %53 = load i32, ptr %14, align 4, !tbaa !17
  %54 = call noundef signext i8 @_ZN6icu_77L15isGregorianLeapEi(i32 noundef %53)
  %55 = icmp ne i8 %54, 0
  %56 = select i1 %55, i32 31, i32 30
  store i32 %56, ptr %8, align 4, !tbaa !17
  %57 = load i32, ptr %10, align 4, !tbaa !17
  %58 = sub nsw i32 %57, 80
  store i32 %58, ptr %10, align 4, !tbaa !17
  br label %59

59:                                               ; preds = %52, %38
  %60 = load i32, ptr %10, align 4, !tbaa !17
  %61 = load i32, ptr %8, align 4, !tbaa !17
  %62 = icmp slt i32 %60, %61
  br i1 %62, label %63, label %66

63:                                               ; preds = %59
  store i32 0, ptr %11, align 4, !tbaa !17
  %64 = load i32, ptr %10, align 4, !tbaa !17
  %65 = add nsw i32 %64, 1
  store i32 %65, ptr %12, align 4, !tbaa !17
  br label %95

66:                                               ; preds = %59
  %67 = load i32, ptr %10, align 4, !tbaa !17
  %68 = load i32, ptr %8, align 4, !tbaa !17
  %69 = sub nsw i32 %67, %68
  store i32 %69, ptr %13, align 4, !tbaa !17
  %70 = load i32, ptr %13, align 4, !tbaa !17
  %71 = icmp slt i32 %70, 155
  br i1 %71, label %72, label %82

72:                                               ; preds = %66
  %73 = load i32, ptr %13, align 4, !tbaa !17
  %74 = sdiv i32 %73, 31
  %75 = sitofp i32 %74 to double
  %76 = call double @uprv_floor_77(double noundef %75)
  %77 = fptosi double %76 to i32
  %78 = add nsw i32 %77, 1
  store i32 %78, ptr %11, align 4, !tbaa !17
  %79 = load i32, ptr %13, align 4, !tbaa !17
  %80 = srem i32 %79, 31
  %81 = add nsw i32 %80, 1
  store i32 %81, ptr %12, align 4, !tbaa !17
  br label %94

82:                                               ; preds = %66
  %83 = load i32, ptr %13, align 4, !tbaa !17
  %84 = sub nsw i32 %83, 155
  store i32 %84, ptr %13, align 4, !tbaa !17
  %85 = load i32, ptr %13, align 4, !tbaa !17
  %86 = sdiv i32 %85, 30
  %87 = sitofp i32 %86 to double
  %88 = call double @uprv_floor_77(double noundef %87)
  %89 = fptosi double %88 to i32
  %90 = add nsw i32 %89, 6
  store i32 %90, ptr %11, align 4, !tbaa !17
  %91 = load i32, ptr %13, align 4, !tbaa !17
  %92 = srem i32 %91, 30
  %93 = add nsw i32 %92, 1
  store i32 %93, ptr %12, align 4, !tbaa !17
  br label %94

94:                                               ; preds = %82, %72
  br label %95

95:                                               ; preds = %94, %63
  call void @_ZN6icu_778Calendar11internalSetE19UCalendarDateFieldsi(ptr noundef nonnull align 8 dereferenceable(192) %16, i32 noundef 0, i32 noundef 0)
  %96 = load i32, ptr %9, align 4, !tbaa !17
  call void @_ZN6icu_778Calendar11internalSetE19UCalendarDateFieldsi(ptr noundef nonnull align 8 dereferenceable(192) %16, i32 noundef 19, i32 noundef %96)
  %97 = load i32, ptr %9, align 4, !tbaa !17
  call void @_ZN6icu_778Calendar11internalSetE19UCalendarDateFieldsi(ptr noundef nonnull align 8 dereferenceable(192) %16, i32 noundef 1, i32 noundef %97)
  %98 = load i32, ptr %11, align 4, !tbaa !17
  call void @_ZN6icu_778Calendar11internalSetE19UCalendarDateFieldsi(ptr noundef nonnull align 8 dereferenceable(192) %16, i32 noundef 2, i32 noundef %98)
  %99 = load i32, ptr %11, align 4, !tbaa !17
  call void @_ZN6icu_778Calendar11internalSetE19UCalendarDateFieldsi(ptr noundef nonnull align 8 dereferenceable(192) %16, i32 noundef 23, i32 noundef %99)
  %100 = load i32, ptr %12, align 4, !tbaa !17
  call void @_ZN6icu_778Calendar11internalSetE19UCalendarDateFieldsi(ptr noundef nonnull align 8 dereferenceable(192) %16, i32 noundef 5, i32 noundef %100)
  %101 = load i32, ptr %10, align 4, !tbaa !17
  %102 = add nsw i32 %101, 1
  call void @_ZN6icu_778Calendar11internalSetE19UCalendarDateFieldsi(ptr noundef nonnull align 8 dereferenceable(192) %16, i32 noundef 6, i32 noundef %102)
  store i32 0, ptr %15, align 4
  br label %103

103:                                              ; preds = %95, %25
  call void @llvm.lifetime.end.p0(i64 4, ptr %14) #9
  call void @llvm.lifetime.end.p0(i64 4, ptr %13) #9
  call void @llvm.lifetime.end.p0(i64 4, ptr %12) #9
  call void @llvm.lifetime.end.p0(i64 4, ptr %11) #9
  call void @llvm.lifetime.end.p0(i64 4, ptr %10) #9
  call void @llvm.lifetime.end.p0(i64 4, ptr %9) #9
  call void @llvm.lifetime.end.p0(i64 4, ptr %8) #9
  call void @llvm.lifetime.end.p0(i64 8, ptr %7) #9
  %104 = load i32, ptr %15, align 4
  switch i32 %104, label %106 [
    i32 0, label %105
    i32 1, label %105
  ]

105:                                              ; preds = %103, %103
  ret void

106:                                              ; preds = %103
  unreachable
}