; Function Attrs: mustprogress uwtable
define void @_ZN6icu_7714IndianCalendar19handleComputeFieldsEiR10UErrorCode(ptr noundef nonnull writeonly align 8 captures(none) dereferenceable(192) %0, i32 noundef %1, ptr noundef nonnull align 4 dereferenceable(4) %2) unnamed_addr #0 align 2 {
  %4 = add nsw i32 %1, -2440588
  %5 = tail call noundef i32 @_ZN6icu_775Grego9dayToYearEiR10UErrorCode(i32 noundef %4, ptr noundef nonnull align 4 dereferenceable(4) %2)
  %6 = load i32, ptr %2, align 4, !tbaa !9
  %7 = icmp slt i32 %6, 1
  br i1 %7, label %8, label %73

8:                                                ; preds = %3
  %9 = tail call noundef i64 @_ZN6icu_775Grego11fieldsToDayEiii(i32 noundef %5, i32 noundef 0, i32 noundef 1)
  %10 = add nsw i64 %9, 2440588
  %11 = sitofp i64 %10 to double
  %12 = fadd double %11, -5.000000e-01
  %13 = sitofp i32 %1 to double
  %14 = fsub double %13, %12
  %15 = fptosi double %14 to i32
  %16 = icmp slt i32 %15, 80
  br i1 %16, label %17, label %28

17:                                               ; preds = %8
  %18 = add nsw i32 %5, -79
  %19 = add i32 %5, -1
  %20 = and i32 %19, 3
  %21 = icmp eq i32 %20, 0
  br i1 %21, label %22, label %_ZN6icu_77L15isGregorianLeapEi.exit.thread

22:                                               ; preds = %17
  %23 = srem i32 %19, 100
  %.not.i.i = icmp ne i32 %23, 0
  %24 = srem i32 %19, 400
  %.not53 = icmp eq i32 %24, 0
  %or.cond = or i1 %.not.i.i, %.not53
  br i1 %or.cond, label %_ZN6icu_77L15isGregorianLeapEi.exit.thread44, label %_ZN6icu_77L15isGregorianLeapEi.exit.thread

_ZN6icu_77L15isGregorianLeapEi.exit.thread:       ; preds = %22, %17
  br label %_ZN6icu_77L15isGregorianLeapEi.exit.thread44

_ZN6icu_77L15isGregorianLeapEi.exit.thread44:     ; preds = %22, %_ZN6icu_77L15isGregorianLeapEi.exit.thread
  %25 = phi i32 [ 30, %_ZN6icu_77L15isGregorianLeapEi.exit.thread ], [ 31, %22 ]
  %26 = add nsw i32 %15, 255
  %27 = add nsw i32 %26, %25
  br label %37

28:                                               ; preds = %8
  %29 = add nsw i32 %5, -78
  %30 = and i32 %5, 3
  %31 = icmp eq i32 %30, 0
  br i1 %31, label %32, label %_ZN6icu_77L15isGregorianLeapEi.exit41.thread

32:                                               ; preds = %28
  %33 = srem i32 %5, 100
  %.not.i.i40 = icmp ne i32 %33, 0
  %34 = srem i32 %5, 400
  %.not = icmp eq i32 %34, 0
  %or.cond54 = or i1 %.not.i.i40, %.not
  br i1 %or.cond54, label %_ZN6icu_77L15isGregorianLeapEi.exit41.thread48, label %_ZN6icu_77L15isGregorianLeapEi.exit41.thread

_ZN6icu_77L15isGregorianLeapEi.exit41.thread:     ; preds = %32, %28
  br label %_ZN6icu_77L15isGregorianLeapEi.exit41.thread48

_ZN6icu_77L15isGregorianLeapEi.exit41.thread48:   ; preds = %32, %_ZN6icu_77L15isGregorianLeapEi.exit41.thread
  %35 = phi i32 [ 30, %_ZN6icu_77L15isGregorianLeapEi.exit41.thread ], [ 31, %32 ]
  %36 = add nsw i32 %15, -80
  br label %37

37:                                               ; preds = %_ZN6icu_77L15isGregorianLeapEi.exit41.thread48, %_ZN6icu_77L15isGregorianLeapEi.exit.thread44
  %.034 = phi i32 [ %18, %_ZN6icu_77L15isGregorianLeapEi.exit.thread44 ], [ %29, %_ZN6icu_77L15isGregorianLeapEi.exit41.thread48 ]
  %.033 = phi i32 [ %27, %_ZN6icu_77L15isGregorianLeapEi.exit.thread44 ], [ %36, %_ZN6icu_77L15isGregorianLeapEi.exit41.thread48 ]
  %.0 = phi i32 [ %25, %_ZN6icu_77L15isGregorianLeapEi.exit.thread44 ], [ %35, %_ZN6icu_77L15isGregorianLeapEi.exit41.thread48 ]
  %38 = icmp slt i32 %.033, %.0
  br i1 %38, label %57, label %39

39:                                               ; preds = %37
  %40 = sub nsw i32 %.033, %.0
  %41 = icmp slt i32 %40, 155
  br i1 %41, label %42, label %49

42:                                               ; preds = %39
  %.lhs.trunc = trunc i32 %40 to i16
  %43 = sdiv i16 %.lhs.trunc, 31
  %44 = uitofp i16 %43 to double
  %45 = tail call double @uprv_floor_77(double noundef %44)
  %46 = fptosi double %45 to i32
  %47 = add nsw i32 %46, 1
  %48 = srem i16 %.lhs.trunc, 31
  %.sext51 = sext i16 %48 to i32
  br label %57

49:                                               ; preds = %39
  %50 = add nsw i32 %40, -155
  %51 = udiv i32 %50, 30
  %52 = uitofp nneg i32 %51 to double
  %53 = tail call double @uprv_floor_77(double noundef %52)
  %54 = fptosi double %53 to i32
  %55 = add nsw i32 %54, 6
  %56 = urem i32 %50, 30
  br label %57

57:                                               ; preds = %37, %42, %49
  %.032 = phi i32 [ %47, %42 ], [ %55, %49 ], [ 0, %37 ]
  %.031.in = phi i32 [ %.sext51, %42 ], [ %56, %49 ], [ %.033, %37 ]
  %.031 = add nsw i32 %.031.in, 1
  %58 = getelementptr inbounds nuw i8, ptr %0, i64 8
  store i32 0, ptr %58, align 8, !tbaa !6
  %59 = getelementptr inbounds nuw i8, ptr %0, i64 104
  store i8 1, ptr %59, align 8, !tbaa !11
  %60 = getelementptr inbounds nuw i8, ptr %0, i64 84
  store i32 %.034, ptr %60, align 4, !tbaa !6
  %61 = getelementptr inbounds nuw i8, ptr %0, i64 123
  store i8 1, ptr %61, align 1, !tbaa !11
  %62 = getelementptr inbounds nuw i8, ptr %0, i64 12
  store i32 %.034, ptr %62, align 4, !tbaa !6
  %63 = getelementptr inbounds nuw i8, ptr %0, i64 105
  store i8 1, ptr %63, align 1, !tbaa !11
  %64 = getelementptr inbounds nuw i8, ptr %0, i64 16
  store i32 %.032, ptr %64, align 8, !tbaa !6
  %65 = getelementptr inbounds nuw i8, ptr %0, i64 106
  store i8 1, ptr %65, align 2, !tbaa !11
  %66 = getelementptr inbounds nuw i8, ptr %0, i64 100
  store i32 %.032, ptr %66, align 4, !tbaa !6
  %67 = getelementptr inbounds nuw i8, ptr %0, i64 127
  store i8 1, ptr %67, align 1, !tbaa !11
  %68 = getelementptr inbounds nuw i8, ptr %0, i64 28
  store i32 %.031, ptr %68, align 4, !tbaa !6
  %69 = getelementptr inbounds nuw i8, ptr %0, i64 109
  store i8 1, ptr %69, align 1, !tbaa !11
  %70 = add nsw i32 %.033, 1
  %71 = getelementptr inbounds nuw i8, ptr %0, i64 32
  store i32 %70, ptr %71, align 8, !tbaa !6
  %72 = getelementptr inbounds nuw i8, ptr %0, i64 110
  store i8 1, ptr %72, align 2, !tbaa !11
  br label %73

73:                                               ; preds = %3, %57
  ret void
}